; Function Attrs: nounwind uwtable
define ptr @redisAsyncConnect(ptr noundef %ip, i32 noundef %port) local_unnamed_addr #0 {
entry:
  %options = alloca %struct.redisOptions, align 8
  %ip1 = getelementptr inbounds i8, ptr %options, i64 32
  call void @llvm.memset.p0.i64(ptr noundef nonnull align 8 dereferenceable(80) %options, i8 0, i64 80, i1 false)
  store ptr %ip, ptr %ip1, align 8
  %port3 = getelementptr inbounds i8, ptr %options, i64 40
  store i32 %port, ptr %port3, align 8
  %call = call ptr @redisAsyncConnectWithOptions(ptr noundef nonnull %options)
  ret ptr %call
}